; Function Attrs: mustprogress uwtable
define hidden noundef i32 @_ZN4cvc58internal7options23stringToProofFormatModeERKNSt7__cxx1112basic_stringIcSt11char_traitsIcESaIcEEE(ptr noundef nonnull align 8 dereferenceable(32) %optarg) local_unnamed_addr #3 personality ptr @__gxx_personality_v0 {
entry:
  %ref.tmp = alloca %"class.std::__cxx11::basic_string", align 8
  %ref.tmp21 = alloca %"class.std::__cxx11::basic_string", align 8
  %ref.tmp22 = alloca %"class.std::__cxx11::basic_string", align 8
  %ref.tmp23 = alloca %"class.std::allocator", align 1
  %call.i = tail call noundef i32 @_ZNKSt7__cxx1112basic_stringIcSt11char_traitsIcESaIcEE7compareEPKc(ptr noundef nonnull align 8 dereferenceable(32) %optarg, ptr noundef nonnull @.str.3) #12
  %cmp.i = icmp eq i32 %call.i, 0
  br i1 %cmp.i, label %return, label %if.else

if.else:                                          ; preds = %entry
  %call.i10 = tail call noundef i32 @_ZNKSt7__cxx1112basic_stringIcSt11char_traitsIcESaIcEE7compareEPKc(ptr noundef nonnull align 8 dereferenceable(32) %optarg, ptr noundef nonnull @.str.10) #12
  %cmp.i11 = icmp eq i32 %call.i10, 0
  br i1 %cmp.i11, label %return, label %if.else3

if.else3:                                         ; preds = %if.else
  %call.i12 = tail call noundef i32 @_ZNKSt7__cxx1112basic_stringIcSt11char_traitsIcESaIcEE7compareEPKc(ptr noundef nonnull align 8 dereferenceable(32) %optarg, ptr noundef nonnull @.str.11) #12
  %cmp.i13 = icmp eq i32 %call.i12, 0
  br i1 %cmp.i13, label %return, label %if.else6

if.else6:                                         ; preds = %if.else3
  %call.i14 = tail call noundef i32 @_ZNKSt7__cxx1112basic_stringIcSt11char_traitsIcESaIcEE7compareEPKc(ptr noundef nonnull align 8 dereferenceable(32) %optarg, ptr noundef nonnull @.str.12) #12
  %cmp.i15 = icmp eq i32 %call.i14, 0
  br i1 %cmp.i15, label %return, label %if.else9

if.else9:                                         ; preds = %if.else6
  %call.i16 = tail call noundef i32 @_ZNKSt7__cxx1112basic_stringIcSt11char_traitsIcESaIcEE7compareEPKc(ptr noundef nonnull align 8 dereferenceable(32) %optarg, ptr noundef nonnull @.str.13) #12
  %cmp.i17 = icmp eq i32 %call.i16, 0
  br i1 %cmp.i17, label %return, label %if.else12

if.else12:                                        ; preds = %if.else9
  %call.i18 = tail call noundef i32 @_ZNKSt7__cxx1112basic_stringIcSt11char_traitsIcESaIcEE7compareEPKc(ptr noundef nonnull align 8 dereferenceable(32) %optarg, ptr noundef nonnull @.str.6) #12
  %cmp.i19 = icmp eq i32 %call.i18, 0
  br i1 %cmp.i19, label %if.then14, label %if.end20

if.then14:                                        ; preds = %if.else12
  %call15 = tail call noundef nonnull align 8 dereferenceable(8) ptr @_ZStlsISt11char_traitsIcEERSt13basic_ostreamIcT_ES5_PKc(ptr noundef nonnull align 8 dereferenceable(8) @_ZSt4cerr, ptr noundef nonnull @.str.14)
  tail call void @exit(i32 noundef 1) #11
  unreachable

if.end20:                                         ; preds = %if.else12
  %exception = tail call ptr @__cxa_allocate_exception(i64 40) #12
  call void @_ZNSaIcEC1Ev(ptr noundef nonnull align 1 dereferenceable(1) %ref.tmp23) #12
  invoke void @_ZNSt7__cxx1112basic_stringIcSt11char_traitsIcESaIcEEC2IS3_EEPKcRKS3_(ptr noundef nonnull align 8 dereferenceable(32) %ref.tmp22, ptr noundef nonnull @.str.15, ptr noundef nonnull align 1 dereferenceable(1) %ref.tmp23)
          to label %invoke.cont unwind label %ehcleanup31.thread

invoke.cont:                                      ; preds = %if.end20
  %call.i2021 = invoke noundef nonnull align 8 dereferenceable(32) ptr @_ZNSt7__cxx1112basic_stringIcSt11char_traitsIcESaIcEE6appendERKS4_(ptr noundef nonnull align 8 dereferenceable(32) %ref.tmp22, ptr noundef nonnull align 8 dereferenceable(32) %optarg)
          to label %invoke.cont25 unwind label %lpad24

invoke.cont25:                                    ; preds = %invoke.cont
  call void @_ZNSt7__cxx1112basic_stringIcSt11char_traitsIcESaIcEEC1EOS4_(ptr noundef nonnull align 8 dereferenceable(32) %ref.tmp21, ptr noundef nonnull align 8 dereferenceable(32) %call.i2021) #12
  %call.i2223 = invoke noundef nonnull align 8 dereferenceable(32) ptr @_ZNSt7__cxx1112basic_stringIcSt11char_traitsIcESaIcEE6appendEPKc(ptr noundef nonnull align 8 dereferenceable(32) %ref.tmp21, ptr noundef nonnull @.str.16)
          to label %invoke.cont27 unwind label %lpad26

invoke.cont27:                                    ; preds = %invoke.cont25
  call void @_ZNSt7__cxx1112basic_stringIcSt11char_traitsIcESaIcEEC1EOS4_(ptr noundef nonnull align 8 dereferenceable(32) %ref.tmp, ptr noundef nonnull align 8 dereferenceable(32) %call.i2223) #12
  invoke void @_ZN4cvc58internal15OptionExceptionC2ERKNSt7__cxx1112basic_stringIcSt11char_traitsIcESaIcEEE(ptr noundef nonnull align 8 dereferenceable(40) %exception, ptr noundef nonnull align 8 dereferenceable(32) %ref.tmp)
          to label %invoke.cont29 unwind label %lpad28

invoke.cont29:                                    ; preds = %invoke.cont27
  invoke void @__cxa_throw(ptr nonnull %exception, ptr nonnull @_ZTIN4cvc58internal15OptionExceptionE, ptr nonnull @_ZN4cvc58internal15OptionExceptionD2Ev) #13
          to label %unreachable unwind label %lpad28

ehcleanup31.thread:                               ; preds = %if.end20
  %0 = landingpad { ptr, i32 }
          cleanup
  call void @_ZNSaIcED1Ev(ptr noundef nonnull align 1 dereferenceable(1) %ref.tmp23) #12
  br label %cleanup.action

lpad24:                                           ; preds = %invoke.cont
  %1 = landingpad { ptr, i32 }
          cleanup
  br label %ehcleanup31

lpad26:                                           ; preds = %invoke.cont25
  %2 = landingpad { ptr, i32 }
          cleanup
  br label %ehcleanup

lpad28:                                           ; preds = %invoke.cont29, %invoke.cont27
  %cleanup.isactive.0 = phi i1 [ false, %invoke.cont29 ], [ true, %invoke.cont27 ]
  %3 = landingpad { ptr, i32 }
          cleanup
  call void @_ZNSt7__cxx1112basic_stringIcSt11char_traitsIcESaIcEED1Ev(ptr noundef nonnull align 8 dereferenceable(32) %ref.tmp) #12
  br label %ehcleanup

ehcleanup:                                        ; preds = %lpad28, %lpad26
  %.pn = phi { ptr, i32 } [ %3, %lpad28 ], [ %2, %lpad26 ]
  %cleanup.isactive.1 = phi i1 [ %cleanup.isactive.0, %lpad28 ], [ true, %lpad26 ]
  call void @_ZNSt7__cxx1112basic_stringIcSt11char_traitsIcESaIcEED1Ev(ptr noundef nonnull align 8 dereferenceable(32) %ref.tmp21) #12
  br label %ehcleanup31

ehcleanup31:                                      ; preds = %lpad24, %ehcleanup
  %.pn.pn = phi { ptr, i32 } [ %.pn, %ehcleanup ], [ %1, %lpad24 ]
  %cleanup.isactive.2 = phi i1 [ %cleanup.isactive.1, %ehcleanup ], [ true, %lpad24 ]
  call void @_ZNSt7__cxx1112basic_stringIcSt11char_traitsIcESaIcEED1Ev(ptr noundef nonnull align 8 dereferenceable(32) %ref.tmp22) #12
  call void @_ZNSaIcED1Ev(ptr noundef nonnull align 1 dereferenceable(1) %ref.tmp23) #12
  br i1 %cleanup.isactive.2, label %cleanup.action, label %eh.resume

cleanup.action:                                   ; preds = %ehcleanup31.thread, %ehcleanup31
  %.pn.pn.pn27 = phi { ptr, i32 } [ %0, %ehcleanup31.thread ], [ %.pn.pn, %ehcleanup31 ]
  call void @__cxa_free_exception(ptr %exception) #12
  br label %eh.resume

return:                                           ; preds = %if.else9, %if.else6, %if.else3, %if.else, %entry
  %retval.0 = phi i32 [ 0, %entry ], [ 1, %if.else ], [ 2, %if.else3 ], [ 3, %if.else6 ], [ 4, %if.else9 ]
  ret i32 %retval.0

eh.resume:                                        ; preds = %ehcleanup31, %cleanup.action
  %.pn.pn.pn26 = phi { ptr, i32 } [ %.pn.pn, %ehcleanup31 ], [ %.pn.pn.pn27, %cleanup.action ]
  resume { ptr, i32 } %.pn.pn.pn26

unreachable:                                      ; preds = %invoke.cont29
  unreachable
}